; Function Attrs: mustprogress uwtable
define noundef zeroext i1 @_ZN8facebook4yoga4Node24isLayoutDimensionDefinedENS0_13FlexDirectionE(ptr noundef nonnull readonly align 8 captures(none) dereferenceable(584) %0, i8 noundef zeroext %1) local_unnamed_addr #3 align 2 {
  %3 = icmp ult i8 %1, 4
  br i1 %3, label %switch.lookup, label %4

4:                                                ; preds = %2
  tail call void @_ZN8facebook4yoga16fatalWithMessageEPKc(ptr noundef nonnull @.str.7) #27
  unreachable

switch.lookup:                                    ; preds = %2
  %5 = zext nneg i8 %1 to i64
  %switch.gep = getelementptr inbounds nuw [4 x i64], ptr @switch.table._ZN8facebook4yoga4Node24isLayoutDimensionDefinedENS0_13FlexDirectionE, i64 0, i64 %5
  %switch.load = load i64, ptr %switch.gep, align 8
  %6 = getelementptr inbounds nuw i8, ptr %0, i64 436
  %7 = getelementptr inbounds nuw [2 x float], ptr %6, i64 0, i64 %switch.load
  %8 = load float, ptr %7, align 4, !tbaa !20
  %9 = fcmp oge float %8, 0.000000e+00
  ret i1 %9
}